#include <math.h>
#include <stdio.h>
#include <stdlib.h>
#include <string.h>

int main()
{
	int row,col,x,y,a[100][100],flag=0,i,k;
	scanf("%d%d",&row,&col);
	for(x=0;x<row;x++){
		for(y=0;y<col;y++){
			scanf("%d",&a[x][y]);}
	}
	k=(row>col)?col:row;
    for(i=0;i<k;i++){
		for(y=i;y<col-i;y++){
			printf("%d\n",a[i][y]);
			flag++;}
          if(flag==row*col)
			  break;
		for(x=i+1;x<row-i;x++){
			printf("%d\n",a[x][col-1-i]);
	    	flag++;}
		if(flag==row*col)
			  break;
		for(y=col-2-i;y>=i;y--){
			printf("%d\n",a[row-1-i][y]);
	    	flag++;}
		if(flag==row*col)
			  break;
		for(x=row-2-i;x>i;x--){
			printf("%d\n",a[x][i]);
	    	flag++;}
		if(flag==row*col)
			  break;
	}
	return 0;
}
