; ModuleID = '46/815.c'
source_filename = "46/815.c"
target datalayout = "e-m:e-p270:32:32-p271:32:32-p272:64:64-i64:64-f80:128-n8:16:32:64-S128"
target triple = "x86_64-pc-linux-gnu"

@.str = private unnamed_addr constant [5 x i8] c"%d%d\00", align 1
@.str.1 = private unnamed_addr constant [3 x i8] c"%d\00", align 1
@.str.2 = private unnamed_addr constant [4 x i8] c"%d\0A\00", align 1

; Function Attrs: noinline nounwind uwtable
define dso_local i32 @main() #0 {
  %1 = alloca i32, align 4
  %2 = alloca i32, align 4
  %3 = alloca i32, align 4
  %4 = alloca i32, align 4
  %5 = alloca i32, align 4
  %6 = alloca [100 x [100 x i32]], align 16
  %7 = alloca i32, align 4
  %8 = alloca i32, align 4
  %9 = alloca i32, align 4
  store i32 0, i32* %1, align 4
  store i32 0, i32* %7, align 4
  %10 = call i32 (i8*, ...) @__isoc99_scanf(i8* getelementptr inbounds ([5 x i8], [5 x i8]* @.str, i64 0, i64 0), i32* %2, i32* %3)
  store i32 0, i32* %4, align 4
  br label %11

11:                                               ; preds = %32, %0
  %12 = load i32, i32* %4, align 4
  %13 = load i32, i32* %2, align 4
  %14 = icmp slt i32 %12, %13
  br i1 %14, label %15, label %35

15:                                               ; preds = %11
  store i32 0, i32* %5, align 4
  br label %16

16:                                               ; preds = %28, %15
  %17 = load i32, i32* %5, align 4
  %18 = load i32, i32* %3, align 4
  %19 = icmp slt i32 %17, %18
  br i1 %19, label %20, label %31

20:                                               ; preds = %16
  %21 = load i32, i32* %4, align 4
  %22 = sext i32 %21 to i64
  %23 = getelementptr inbounds [100 x [100 x i32]], [100 x [100 x i32]]* %6, i64 0, i64 %22
  %24 = load i32, i32* %5, align 4
  %25 = sext i32 %24 to i64
  %26 = getelementptr inbounds [100 x i32], [100 x i32]* %23, i64 0, i64 %25
  %27 = call i32 (i8*, ...) @__isoc99_scanf(i8* getelementptr inbounds ([3 x i8], [3 x i8]* @.str.1, i64 0, i64 0), i32* %26)
  br label %28

28:                                               ; preds = %20
  %29 = load i32, i32* %5, align 4
  %30 = add nsw i32 %29, 1
  store i32 %30, i32* %5, align 4
  br label %16

31:                                               ; preds = %16
  br label %32

32:                                               ; preds = %31
  %33 = load i32, i32* %4, align 4
  %34 = add nsw i32 %33, 1
  store i32 %34, i32* %4, align 4
  br label %11

35:                                               ; preds = %11
  %36 = load i32, i32* %2, align 4
  %37 = load i32, i32* %3, align 4
  %38 = icmp sgt i32 %36, %37
  br i1 %38, label %39, label %41

39:                                               ; preds = %35
  %40 = load i32, i32* %3, align 4
  br label %43

41:                                               ; preds = %35
  %42 = load i32, i32* %2, align 4
  br label %43

43:                                               ; preds = %41, %39
  %44 = phi i32 [ %40, %39 ], [ %42, %41 ]
  store i32 %44, i32* %9, align 4
  store i32 0, i32* %8, align 4
  br label %45

45:                                               ; preds = %175, %43
  %46 = load i32, i32* %8, align 4
  %47 = load i32, i32* %9, align 4
  %48 = icmp slt i32 %46, %47
  br i1 %48, label %49, label %178

49:                                               ; preds = %45
  %50 = load i32, i32* %8, align 4
  store i32 %50, i32* %5, align 4
  br label %51

51:                                               ; preds = %68, %49
  %52 = load i32, i32* %5, align 4
  %53 = load i32, i32* %3, align 4
  %54 = load i32, i32* %8, align 4
  %55 = sub nsw i32 %53, %54
  %56 = icmp slt i32 %52, %55
  br i1 %56, label %57, label %71

57:                                               ; preds = %51
  %58 = load i32, i32* %8, align 4
  %59 = sext i32 %58 to i64
  %60 = getelementptr inbounds [100 x [100 x i32]], [100 x [100 x i32]]* %6, i64 0, i64 %59
  %61 = load i32, i32* %5, align 4
  %62 = sext i32 %61 to i64
  %63 = getelementptr inbounds [100 x i32], [100 x i32]* %60, i64 0, i64 %62
  %64 = load i32, i32* %63, align 4
  %65 = call i32 (i8*, ...) @printf(i8* getelementptr inbounds ([4 x i8], [4 x i8]* @.str.2, i64 0, i64 0), i32 %64)
  %66 = load i32, i32* %7, align 4
  %67 = add nsw i32 %66, 1
  store i32 %67, i32* %7, align 4
  br label %68

68:                                               ; preds = %57
  %69 = load i32, i32* %5, align 4
  %70 = add nsw i32 %69, 1
  store i32 %70, i32* %5, align 4
  br label %51

71:                                               ; preds = %51
  %72 = load i32, i32* %7, align 4
  %73 = load i32, i32* %2, align 4
  %74 = load i32, i32* %3, align 4
  %75 = mul nsw i32 %73, %74
  %76 = icmp eq i32 %72, %75
  br i1 %76, label %77, label %78

77:                                               ; preds = %71
  br label %178

78:                                               ; preds = %71
  %79 = load i32, i32* %8, align 4
  %80 = add nsw i32 %79, 1
  store i32 %80, i32* %4, align 4
  br label %81

81:                                               ; preds = %101, %78
  %82 = load i32, i32* %4, align 4
  %83 = load i32, i32* %2, align 4
  %84 = load i32, i32* %8, align 4
  %85 = sub nsw i32 %83, %84
  %86 = icmp slt i32 %82, %85
  br i1 %86, label %87, label %104

87:                                               ; preds = %81
  %88 = load i32, i32* %4, align 4
  %89 = sext i32 %88 to i64
  %90 = getelementptr inbounds [100 x [100 x i32]], [100 x [100 x i32]]* %6, i64 0, i64 %89
  %91 = load i32, i32* %3, align 4
  %92 = sub nsw i32 %91, 1
  %93 = load i32, i32* %8, align 4
  %94 = sub nsw i32 %92, %93
  %95 = sext i32 %94 to i64
  %96 = getelementptr inbounds [100 x i32], [100 x i32]* %90, i64 0, i64 %95
  %97 = load i32, i32* %96, align 4
  %98 = call i32 (i8*, ...) @printf(i8* getelementptr inbounds ([4 x i8], [4 x i8]* @.str.2, i64 0, i64 0), i32 %97)
  %99 = load i32, i32* %7, align 4
  %100 = add nsw i32 %99, 1
  store i32 %100, i32* %7, align 4
  br label %101

101:                                              ; preds = %87
  %102 = load i32, i32* %4, align 4
  %103 = add nsw i32 %102, 1
  store i32 %103, i32* %4, align 4
  br label %81

104:                                              ; preds = %81
  %105 = load i32, i32* %7, align 4
  %106 = load i32, i32* %2, align 4
  %107 = load i32, i32* %3, align 4
  %108 = mul nsw i32 %106, %107
  %109 = icmp eq i32 %105, %108
  br i1 %109, label %110, label %111

110:                                              ; preds = %104
  br label %178

111:                                              ; preds = %104
  %112 = load i32, i32* %3, align 4
  %113 = sub nsw i32 %112, 2
  %114 = load i32, i32* %8, align 4
  %115 = sub nsw i32 %113, %114
  store i32 %115, i32* %5, align 4
  br label %116

116:                                              ; preds = %134, %111
  %117 = load i32, i32* %5, align 4
  %118 = load i32, i32* %8, align 4
  %119 = icmp sge i32 %117, %118
  br i1 %119, label %120, label %137

120:                                              ; preds = %116
  %121 = load i32, i32* %2, align 4
  %122 = sub nsw i32 %121, 1
  %123 = load i32, i32* %8, align 4
  %124 = sub nsw i32 %122, %123
  %125 = sext i32 %124 to i64
  %126 = getelementptr inbounds [100 x [100 x i32]], [100 x [100 x i32]]* %6, i64 0, i64 %125
  %127 = load i32, i32* %5, align 4
  %128 = sext i32 %127 to i64
  %129 = getelementptr inbounds [100 x i32], [100 x i32]* %126, i64 0, i64 %128
  %130 = load i32, i32* %129, align 4
  %131 = call i32 (i8*, ...) @printf(i8* getelementptr inbounds ([4 x i8], [4 x i8]* @.str.2, i64 0, i64 0), i32 %130)
  %132 = load i32, i32* %7, align 4
  %133 = add nsw i32 %132, 1
  store i32 %133, i32* %7, align 4
  br label %134

134:                                              ; preds = %120
  %135 = load i32, i32* %5, align 4
  %136 = add nsw i32 %135, -1
  store i32 %136, i32* %5, align 4
  br label %116

137:                                              ; preds = %116
  %138 = load i32, i32* %7, align 4
  %139 = load i32, i32* %2, align 4
  %140 = load i32, i32* %3, align 4
  %141 = mul nsw i32 %139, %140
  %142 = icmp eq i32 %138, %141
  br i1 %142, label %143, label %144

143:                                              ; preds = %137
  br label %178

144:                                              ; preds = %137
  %145 = load i32, i32* %2, align 4
  %146 = sub nsw i32 %145, 2
  %147 = load i32, i32* %8, align 4
  %148 = sub nsw i32 %146, %147
  store i32 %148, i32* %4, align 4
  br label %149

149:                                              ; preds = %164, %144
  %150 = load i32, i32* %4, align 4
  %151 = load i32, i32* %8, align 4
  %152 = icmp sgt i32 %150, %151
  br i1 %152, label %153, label %167

153:                                              ; preds = %149
  %154 = load i32, i32* %4, align 4
  %155 = sext i32 %154 to i64
  %156 = getelementptr inbounds [100 x [100 x i32]], [100 x [100 x i32]]* %6, i64 0, i64 %155
  %157 = load i32, i32* %8, align 4
  %158 = sext i32 %157 to i64
  %159 = getelementptr inbounds [100 x i32], [100 x i32]* %156, i64 0, i64 %158
  %160 = load i32, i32* %159, align 4
  %161 = call i32 (i8*, ...) @printf(i8* getelementptr inbounds ([4 x i8], [4 x i8]* @.str.2, i64 0, i64 0), i32 %160)
  %162 = load i32, i32* %7, align 4
  %163 = add nsw i32 %162, 1
  store i32 %163, i32* %7, align 4
  br label %164

164:                                              ; preds = %153
  %165 = load i32, i32* %4, align 4
  %166 = add nsw i32 %165, -1
  store i32 %166, i32* %4, align 4
  br label %149

167:                                              ; preds = %149
  %168 = load i32, i32* %7, align 4
  %169 = load i32, i32* %2, align 4
  %170 = load i32, i32* %3, align 4
  %171 = mul nsw i32 %169, %170
  %172 = icmp eq i32 %168, %171
  br i1 %172, label %173, label %174

173:                                              ; preds = %167
  br label %178

174:                                              ; preds = %167
  br label %175

175:                                              ; preds = %174
  %176 = load i32, i32* %8, align 4
  %177 = add nsw i32 %176, 1
  store i32 %177, i32* %8, align 4
  br label %45

178:                                              ; preds = %173, %143, %110, %77, %45
  ret i32 0
}

declare dso_local i32 @__isoc99_scanf(i8*, ...) #1

declare dso_local i32 @printf(i8*, ...) #1


!llvm.module.flags = !{!0}
!llvm.ident = !{!1}

!0 = !{i32 1, !"wchar_size", i32 4}
!1 = !{!"clang version 10.0.0-4ubuntu1 "}
